target datalayout = "e-m:e-p270:32:32-p271:32:32-p272:64:64-i64:64-i128:128-f80:128-n8:16:32:64-S128"
target triple = "x86_64-pc-linux-gnu"

%struct.HTable = type { i32, ptr }
%struct.Module_ = type { ptr, ptr, ptr, i16, i32, ptr, %struct.HTable, ptr, ptr, ptr, ptr, ptr, ptr, ptr, ptr, ptr }
%union.SourceSpan = type { i64 }
%struct.Signature_ = type <{ %struct.CalleeAttributes, i16, i8, i32, i32, [4 x i8], ptr }>
%struct.CalleeAttributes = type { i8 }
%struct.Decl_ = type { ptr, ptr, %union.SourceSpan, i64, %union.anon, i32, %union.anon.0, i64, ptr, ptr, ptr, %union.anon.1 }
%union.anon = type { ptr }
%union.anon.0 = type { i16 }
%union.anon.1 = type { %struct.FuncDecl }
%struct.FuncDecl = type { i32, [4 x i8], %struct.Signature_, i32, i32, %union.anon.8 }
%union.anon.8 = type { %struct.anon.9 }
%struct.anon.9 = type { i16, %union.anon.10 }
%union.anon.10 = type { ptr }
%struct.VHeader_ = type { i32, i32, [0 x i8] }
%struct.Type_ = type { i32, ptr, ptr, ptr, %union.anon.85, ptr, ptr, %union.anon.87 }
%union.anon.85 = type { ptr }
%union.anon.87 = type { %struct.TypeFunction }
%struct.TypeFunction = type { ptr, ptr, ptr }
%struct.SemaContext_ = type { ptr, ptr, ptr, %struct.CallEnv, ptr, %union.SourceSpan, i32, i32, ptr, i32, ptr, i32, i32, ptr, ptr, i32, %struct.anon.88, ptr, ptr, ptr, %struct.DynamicScope_, ptr }
%struct.CallEnv = type { i16, ptr, %union.anon.84 }
%union.anon.84 = type { ptr }
%struct.anon.88 = type { i32, ptr, ptr, ptr, ptr, ptr, ptr, ptr, ptr, ptr, i8, ptr }
%struct.DynamicScope_ = type { i32, i8, i32, i32, i32, i32, i32, ptr, i32 }
%struct.anon.2 = type { ptr, ptr, %union.anon.3 }
%union.anon.3 = type { %struct.BitStructDecl }
%struct.BitStructDecl = type { ptr, ptr, i8 }
%struct.CompilationUnit_ = type { ptr, ptr, ptr, ptr, ptr, ptr, ptr, ptr, ptr, ptr, i32, ptr, i8, i8, i8, i8, ptr, ptr, ptr, ptr, ptr, ptr, ptr, ptr, ptr, ptr, ptr, ptr, %struct.HTable, i32, ptr, ptr, %struct.anon.89 }
%struct.anon.89 = type { ptr, ptr }
%struct.ImportDecl = type { ptr, i8, ptr }

; Function Attrs: nounwind uwtable
define internal ptr @operator_in_module(ptr noundef %0, ptr noundef %1, i32 noundef %2) #0 {
  %4 = alloca i32, align 4
  %5 = alloca ptr, align 8
  %6 = alloca ptr, align 8
  %7 = alloca i32, align 4
  %8 = alloca ptr, align 8
  %9 = alloca ptr, align 8
  %10 = alloca ptr, align 8
  %11 = alloca ptr, align 8
  %12 = alloca ptr, align 8
  %13 = alloca i32, align 4
  %14 = alloca ptr, align 8
  %15 = alloca i32, align 4
  %16 = alloca i32, align 4
  %17 = alloca ptr, align 8
  %18 = alloca i32, align 4
  %19 = alloca i32, align 4
  store ptr %0, ptr %11, align 8
  store ptr %1, ptr %12, align 8
  store i32 %2, ptr %13, align 4
  %20 = load ptr, ptr %12, align 8
  %21 = getelementptr inbounds %struct.Module_, ptr %20, i32 0, i32 3
  %22 = load i16, ptr %21, align 8
  %23 = lshr i16 %22, 3
  %24 = and i16 %23, 1
  %25 = trunc i16 %24 to i1
  br i1 %25, label %26, label %27

26:                                               ; preds = %3
  store ptr null, ptr %10, align 8
  br label %103

27:                                               ; preds = %3
  %28 = load ptr, ptr %12, align 8
  %29 = getelementptr inbounds %struct.Module_, ptr %28, i32 0, i32 5
  %30 = load ptr, ptr %29, align 8
  store ptr %30, ptr %14, align 8
  store i32 0, ptr %15, align 4
  %31 = load ptr, ptr %14, align 8
  store ptr %31, ptr %5, align 8
  %32 = load ptr, ptr %5, align 8
  %33 = icmp ne ptr %32, null
  br i1 %33, label %35, label %34

34:                                               ; preds = %27
  store i32 0, ptr %4, align 4
  br label %40

35:                                               ; preds = %27
  %36 = load ptr, ptr %5, align 8
  store ptr %36, ptr %6, align 8
  %37 = load ptr, ptr %6, align 8
  %38 = getelementptr inbounds %struct.VHeader_, ptr %37, i64 -1
  %39 = load i32, ptr %38, align 4
  store i32 %39, ptr %4, align 4
  br label %40

40:                                               ; preds = %35, %34
  %41 = load i32, ptr %4, align 4
  store i32 %41, ptr %16, align 4
  br label %42

42:                                               ; preds = %67, %40
  %43 = load i32, ptr %15, align 4
  %44 = load i32, ptr %16, align 4
  %45 = icmp ult i32 %43, %44
  br i1 %45, label %46, label %70

46:                                               ; preds = %42
  %47 = load ptr, ptr %14, align 8
  %48 = load i32, ptr %15, align 4
  %49 = zext i32 %48 to i64
  %50 = getelementptr inbounds ptr, ptr %47, i64 %49
  %51 = load ptr, ptr %50, align 8
  store ptr %51, ptr %17, align 8
  %52 = load ptr, ptr %17, align 8
  %53 = getelementptr inbounds %struct.Decl_, ptr %52, i32 0, i32 3
  %54 = load i64, ptr %53, align 8
  %55 = lshr i64 %54, 34
  %56 = and i64 %55, 15
  %57 = trunc i64 %56 to i32
  %58 = load i32, ptr %13, align 4
  %59 = icmp eq i32 %57, %58
  br i1 %59, label %60, label %66

60:                                               ; preds = %46
  %61 = load ptr, ptr %11, align 8
  %62 = getelementptr inbounds %struct.SemaContext_, ptr %61, i32 0, i32 2
  %63 = load ptr, ptr %62, align 8
  %64 = load ptr, ptr %17, align 8
  call void @unit_register_external_symbol(ptr noundef %63, ptr noundef %64)
  %65 = load ptr, ptr %17, align 8
  store ptr %65, ptr %10, align 8
  br label %103

66:                                               ; preds = %46
  br label %67

67:                                               ; preds = %66
  %68 = load i32, ptr %15, align 4
  %69 = add i32 %68, 1
  store i32 %69, ptr %15, align 4
  br label %42, !llvm.loop !12

70:                                               ; preds = %42
  store i32 0, ptr %18, align 4
  %71 = load ptr, ptr %12, align 8
  %72 = getelementptr inbounds %struct.Module_, ptr %71, i32 0, i32 11
  %73 = load ptr, ptr %72, align 8
  store ptr %73, ptr %8, align 8
  %74 = load ptr, ptr %8, align 8
  %75 = icmp ne ptr %74, null
  br i1 %75, label %77, label %76

76:                                               ; preds = %70
  store i32 0, ptr %7, align 4
  br label %82

77:                                               ; preds = %70
  %78 = load ptr, ptr %8, align 8
  store ptr %78, ptr %9, align 8
  %79 = load ptr, ptr %9, align 8
  %80 = getelementptr inbounds %struct.VHeader_, ptr %79, i64 -1
  %81 = load i32, ptr %80, align 4
  store i32 %81, ptr %7, align 4
  br label %82

82:                                               ; preds = %77, %76
  %83 = load i32, ptr %7, align 4
  store i32 %83, ptr %19, align 4
  br label %84

84:                                               ; preds = %99, %82
  %85 = load i32, ptr %18, align 4
  %86 = load i32, ptr %19, align 4
  %87 = icmp ult i32 %85, %86
  br i1 %87, label %88, label %102

88:                                               ; preds = %84
  %89 = load ptr, ptr %11, align 8
  %90 = load ptr, ptr %12, align 8
  %91 = getelementptr inbounds %struct.Module_, ptr %90, i32 0, i32 11
  %92 = load ptr, ptr %91, align 8
  %93 = load i32, ptr %18, align 4
  %94 = zext i32 %93 to i64
  %95 = getelementptr inbounds ptr, ptr %92, i64 %94
  %96 = load ptr, ptr %95, align 8
  %97 = load i32, ptr %13, align 4
  %98 = call ptr @operator_in_module(ptr noundef %89, ptr noundef %96, i32 noundef %97)
  store ptr %98, ptr %10, align 8
  br label %103

99:                                               ; No predecessors!
  %100 = load i32, ptr %18, align 4
  %101 = add i32 %100, 1
  store i32 %101, ptr %18, align 4
  br label %84, !llvm.loop !13

102:                                              ; preds = %84
  store ptr null, ptr %10, align 8
  br label %103

103:                                              ; preds = %102, %88, %60, %26
  %104 = load ptr, ptr %10, align 8
  ret ptr %104
}

; Function Attrs: nounwind uwtable
define dso_local ptr @sema_find_operator(ptr noundef %0, ptr noundef %1, i32 noundef %2) #0 {
  %4 = alloca i32, align 4
  %5 = alloca ptr, align 8
  %6 = alloca ptr, align 8
  %7 = alloca i32, align 4
  %8 = alloca ptr, align 8
  %9 = alloca ptr, align 8
  %10 = alloca ptr, align 8
  %11 = alloca ptr, align 8
  %12 = alloca ptr, align 8
  %13 = alloca i32, align 4
  %14 = alloca ptr, align 8
  %15 = alloca ptr, align 8
  %16 = alloca i32, align 4
  %17 = alloca i32, align 4
  %18 = alloca ptr, align 8
  %19 = alloca ptr, align 8
  %20 = alloca ptr, align 8
  %21 = alloca i32, align 4
  %22 = alloca i32, align 4
  store ptr %0, ptr %11, align 8
  store ptr %1, ptr %12, align 8
  store i32 %2, ptr %13, align 4
  %23 = load ptr, ptr %12, align 8
  %24 = getelementptr inbounds %struct.Type_, ptr %23, i32 0, i32 1
  %25 = load ptr, ptr %24, align 8
  store ptr %25, ptr %12, align 8
  %26 = load ptr, ptr %12, align 8
  %27 = call zeroext i1 @type_may_have_sub_elements(ptr noundef %26)
  br i1 %27, label %29, label %28

28:                                               ; preds = %3
  store ptr null, ptr %10, align 8
  br label %131

29:                                               ; preds = %3
  %30 = load ptr, ptr %12, align 8
  %31 = getelementptr inbounds %struct.Type_, ptr %30, i32 0, i32 7
  %32 = load ptr, ptr %31, align 8
  store ptr %32, ptr %14, align 8
  %33 = load ptr, ptr %14, align 8
  %34 = getelementptr inbounds %struct.Decl_, ptr %33, i32 0, i32 11
  %35 = getelementptr inbounds %struct.anon.2, ptr %34, i32 0, i32 1
  %36 = load ptr, ptr %35, align 8
  store ptr %36, ptr %15, align 8
  store i32 0, ptr %16, align 4
  %37 = load ptr, ptr %15, align 8
  store ptr %37, ptr %5, align 8
  %38 = load ptr, ptr %5, align 8
  %39 = icmp ne ptr %38, null
  br i1 %39, label %41, label %40

40:                                               ; preds = %29
  store i32 0, ptr %4, align 4
  br label %46

41:                                               ; preds = %29
  %42 = load ptr, ptr %5, align 8
  store ptr %42, ptr %6, align 8
  %43 = load ptr, ptr %6, align 8
  %44 = getelementptr inbounds %struct.VHeader_, ptr %43, i64 -1
  %45 = load i32, ptr %44, align 4
  store i32 %45, ptr %4, align 4
  br label %46

46:                                               ; preds = %41, %40
  %47 = load i32, ptr %4, align 4
  store i32 %47, ptr %17, align 4
  br label %48

48:                                               ; preds = %73, %46
  %49 = load i32, ptr %16, align 4
  %50 = load i32, ptr %17, align 4
  %51 = icmp ult i32 %49, %50
  br i1 %51, label %52, label %76

52:                                               ; preds = %48
  %53 = load ptr, ptr %15, align 8
  %54 = load i32, ptr %16, align 4
  %55 = zext i32 %54 to i64
  %56 = getelementptr inbounds ptr, ptr %53, i64 %55
  %57 = load ptr, ptr %56, align 8
  store ptr %57, ptr %18, align 8
  %58 = load ptr, ptr %18, align 8
  %59 = getelementptr inbounds %struct.Decl_, ptr %58, i32 0, i32 3
  %60 = load i64, ptr %59, align 8
  %61 = lshr i64 %60, 34
  %62 = and i64 %61, 15
  %63 = trunc i64 %62 to i32
  %64 = load i32, ptr %13, align 4
  %65 = icmp eq i32 %63, %64
  br i1 %65, label %66, label %72

66:                                               ; preds = %52
  %67 = load ptr, ptr %11, align 8
  %68 = getelementptr inbounds %struct.SemaContext_, ptr %67, i32 0, i32 2
  %69 = load ptr, ptr %68, align 8
  %70 = load ptr, ptr %18, align 8
  call void @unit_register_external_symbol(ptr noundef %69, ptr noundef %70)
  %71 = load ptr, ptr %18, align 8
  store ptr %71, ptr %10, align 8
  br label %131

72:                                               ; preds = %52
  br label %73

73:                                               ; preds = %72
  %74 = load i32, ptr %16, align 4
  %75 = add i32 %74, 1
  store i32 %75, ptr %16, align 4
  br label %48, !llvm.loop !10

76:                                               ; preds = %48
  %77 = load ptr, ptr %11, align 8
  %78 = load ptr, ptr %11, align 8
  %79 = getelementptr inbounds %struct.SemaContext_, ptr %78, i32 0, i32 2
  %80 = load ptr, ptr %79, align 8
  %81 = getelementptr inbounds %struct.CompilationUnit_, ptr %80, i32 0, i32 0
  %82 = load ptr, ptr %81, align 8
  %83 = load i32, ptr %13, align 4
  %84 = call ptr @operator_in_module(ptr noundef %77, ptr noundef %82, i32 noundef %83)
  store ptr %84, ptr %19, align 8
  %85 = load ptr, ptr %19, align 8
  %86 = icmp ne ptr %85, null
  br i1 %86, label %87, label %89

87:                                               ; preds = %76
  %88 = load ptr, ptr %19, align 8
  store ptr %88, ptr %10, align 8
  br label %131

89:                                               ; preds = %76
  %90 = load ptr, ptr %11, align 8
  %91 = getelementptr inbounds %struct.SemaContext_, ptr %90, i32 0, i32 1
  %92 = load ptr, ptr %91, align 8
  %93 = getelementptr inbounds %struct.CompilationUnit_, ptr %92, i32 0, i32 2
  %94 = load ptr, ptr %93, align 8
  store ptr %94, ptr %20, align 8
  store i32 0, ptr %21, align 4
  %95 = load ptr, ptr %20, align 8
  store ptr %95, ptr %8, align 8
  %96 = load ptr, ptr %8, align 8
  %97 = icmp ne ptr %96, null
  br i1 %97, label %99, label %98

98:                                               ; preds = %89
  store i32 0, ptr %7, align 4
  br label %104

99:                                               ; preds = %89
  %100 = load ptr, ptr %8, align 8
  store ptr %100, ptr %9, align 8
  %101 = load ptr, ptr %9, align 8
  %102 = getelementptr inbounds %struct.VHeader_, ptr %101, i64 -1
  %103 = load i32, ptr %102, align 4
  store i32 %103, ptr %7, align 4
  br label %104

104:                                              ; preds = %99, %98
  %105 = load i32, ptr %7, align 4
  store i32 %105, ptr %22, align 4
  br label %106

106:                                              ; preds = %127, %104
  %107 = load i32, ptr %21, align 4
  %108 = load i32, ptr %22, align 4
  %109 = icmp ult i32 %107, %108
  br i1 %109, label %110, label %130

110:                                              ; preds = %106
  %111 = load ptr, ptr %11, align 8
  %112 = load ptr, ptr %20, align 8
  %113 = load i32, ptr %21, align 4
  %114 = zext i32 %113 to i64
  %115 = getelementptr inbounds ptr, ptr %112, i64 %114
  %116 = load ptr, ptr %115, align 8
  %117 = getelementptr inbounds %struct.Decl_, ptr %116, i32 0, i32 11
  %118 = getelementptr inbounds %struct.ImportDecl, ptr %117, i32 0, i32 2
  %119 = load ptr, ptr %118, align 8
  %120 = load i32, ptr %13, align 4
  %121 = call ptr @operator_in_module(ptr noundef %111, ptr noundef %119, i32 noundef %120)
  store ptr %121, ptr %19, align 8
  %122 = load ptr, ptr %19, align 8
  %123 = icmp ne ptr %122, null
  br i1 %123, label %124, label %126

124:                                              ; preds = %110
  %125 = load ptr, ptr %19, align 8
  store ptr %125, ptr %10, align 8
  br label %131

126:                                              ; preds = %110
  br label %127

127:                                              ; preds = %126
  %128 = load i32, ptr %21, align 4
  %129 = add i32 %128, 1
  store i32 %129, ptr %21, align 4
  br label %106, !llvm.loop !11

130:                                              ; preds = %106
  store ptr null, ptr %10, align 8
  br label %131

131:                                              ; preds = %130, %124, %87, %66, %28
  %132 = load ptr, ptr %10, align 8
  ret ptr %132
}