; Function Attrs: nounwind uwtable
define dso_local ptr @sema_find_operator(ptr nocapture noundef readonly %0, ptr nocapture noundef readonly %1, i32 noundef %2) local_unnamed_addr #0 {
  %4 = getelementptr inbounds i8, ptr %1, i64 8
  %5 = load ptr, ptr %4, align 8
  %6 = tail call zeroext i1 @type_may_have_sub_elements(ptr noundef %5) #10
  br i1 %6, label %7, label %.loopexit71

7:                                                ; preds = %3
  %8 = getelementptr inbounds i8, ptr %5, i64 56
  %9 = load ptr, ptr %8, align 8
  %10 = getelementptr inbounds i8, ptr %9, i64 88
  %11 = load ptr, ptr %10, align 8
  %.not = icmp eq ptr %11, null
  br i1 %.not, label %._crit_edge, label %12

12:                                               ; preds = %7
  %13 = getelementptr inbounds i8, ptr %11, i64 -8
  %14 = load i32, ptr %13, align 4
  %.not81 = icmp eq i32 %14, 0
  br i1 %.not81, label %._crit_edge, label %.lr.ph.preheader

.lr.ph.preheader:                                 ; preds = %12
  %wide.trip.count = zext i32 %14 to i64
  br label %.lr.ph

15:                                               ; preds = %.lr.ph
  %indvars.iv.next = add nuw nsw i64 %indvars.iv, 1
  %exitcond.not = icmp eq i64 %indvars.iv.next, %wide.trip.count
  br i1 %exitcond.not, label %._crit_edge, label %.lr.ph, !llvm.loop !10

.lr.ph:                                           ; preds = %.lr.ph.preheader, %15
  %indvars.iv = phi i64 [ 0, %.lr.ph.preheader ], [ %indvars.iv.next, %15 ]
  %16 = getelementptr inbounds ptr, ptr %11, i64 %indvars.iv
  %17 = load ptr, ptr %16, align 8
  %18 = getelementptr inbounds i8, ptr %17, i64 24
  %19 = load i64, ptr %18, align 8
  %20 = lshr i64 %19, 34
  %21 = trunc nuw nsw i64 %20 to i32
  %22 = and i32 %21, 15
  %23 = icmp eq i32 %22, %2
  br i1 %23, label %24, label %15

24:                                               ; preds = %.lr.ph
  %25 = getelementptr inbounds i8, ptr %0, i64 16
  %26 = load ptr, ptr %25, align 8
  tail call void @unit_register_external_symbol(ptr noundef %26, ptr noundef nonnull %17) #10
  br label %.loopexit71

._crit_edge:                                      ; preds = %15, %7, %12
  %27 = getelementptr inbounds i8, ptr %0, i64 16
  %28 = load ptr, ptr %27, align 8
  %29 = load ptr, ptr %28, align 8
  %30 = getelementptr inbounds i8, ptr %29, i64 24
  %31 = load i16, ptr %30, align 8
  %32 = and i16 %31, 8
  %.not39.i = icmp eq i16 %32, 0
  br i1 %.not39.i, label %.lr.ph42.i, label %.loopexit72

.lr.ph42.i:                                       ; preds = %._crit_edge, %tailrecurse.i
  %.tr3640.i = phi ptr [ %53, %tailrecurse.i ], [ %29, %._crit_edge ]
  %33 = getelementptr inbounds i8, ptr %.tr3640.i, i64 32
  %34 = load ptr, ptr %33, align 8
  %.not33.i = icmp eq ptr %34, null
  br i1 %.not33.i, label %._crit_edge.i, label %35

35:                                               ; preds = %.lr.ph42.i
  %36 = getelementptr inbounds i8, ptr %34, i64 -8
  %37 = load i32, ptr %36, align 4
  %.not44.i = icmp eq i32 %37, 0
  br i1 %.not44.i, label %._crit_edge.i, label %.lr.ph.preheader.i

.lr.ph.preheader.i:                               ; preds = %35
  %wide.trip.count.i = zext i32 %37 to i64
  br label %.lr.ph.i

38:                                               ; preds = %.lr.ph.i
  %indvars.iv.next.i = add nuw nsw i64 %indvars.iv.i, 1
  %exitcond.not.i = icmp eq i64 %indvars.iv.next.i, %wide.trip.count.i
  br i1 %exitcond.not.i, label %._crit_edge.i, label %.lr.ph.i, !llvm.loop !11

.lr.ph.i:                                         ; preds = %38, %.lr.ph.preheader.i
  %indvars.iv.i = phi i64 [ 0, %.lr.ph.preheader.i ], [ %indvars.iv.next.i, %38 ]
  %39 = getelementptr inbounds ptr, ptr %34, i64 %indvars.iv.i
  %40 = load ptr, ptr %39, align 8
  %41 = getelementptr inbounds i8, ptr %40, i64 24
  %42 = load i64, ptr %41, align 8
  %43 = lshr i64 %42, 34
  %44 = trunc nuw nsw i64 %43 to i32
  %45 = and i32 %44, 15
  %46 = icmp eq i32 %45, %2
  br i1 %46, label %operator_in_module.exit, label %38

._crit_edge.i:                                    ; preds = %38, %35, %.lr.ph42.i
  %47 = getelementptr inbounds i8, ptr %.tr3640.i, i64 88
  %48 = load ptr, ptr %47, align 8
  %.not34.i = icmp eq ptr %48, null
  br i1 %.not34.i, label %.loopexit72, label %49

49:                                               ; preds = %._crit_edge.i
  %50 = getelementptr inbounds i8, ptr %48, i64 -8
  %51 = load i32, ptr %50, align 4
  %52 = icmp eq i32 %51, 0
  br i1 %52, label %.loopexit72, label %tailrecurse.i

tailrecurse.i:                                    ; preds = %49
  %53 = load ptr, ptr %48, align 8
  %54 = getelementptr inbounds i8, ptr %53, i64 24
  %55 = load i16, ptr %54, align 8
  %56 = and i16 %55, 8
  %.not.i = icmp eq i16 %56, 0
  br i1 %.not.i, label %.lr.ph42.i, label %.loopexit72

operator_in_module.exit:                          ; preds = %.lr.ph.i
  tail call void @unit_register_external_symbol(ptr noundef nonnull %28, ptr noundef nonnull %40) #10
  br label %.loopexit71

.loopexit72:                                      ; preds = %49, %._crit_edge.i, %tailrecurse.i, %._crit_edge
  %57 = getelementptr inbounds i8, ptr %0, i64 8
  %58 = load ptr, ptr %57, align 8
  %59 = getelementptr inbounds i8, ptr %58, i64 16
  %60 = load ptr, ptr %59, align 8
  %.not48 = icmp eq ptr %60, null
  br i1 %.not48, label %.loopexit71, label %61

61:                                               ; preds = %.loopexit72
  %62 = getelementptr inbounds i8, ptr %60, i64 -8
  %63 = load i32, ptr %62, align 4
  %.not82 = icmp eq i32 %63, 0
  br i1 %.not82, label %.loopexit71, label %.lr.ph80.preheader

.lr.ph80.preheader:                               ; preds = %61
  %wide.trip.count92 = zext i32 %63 to i64
  br label %.lr.ph80

.lr.ph80:                                         ; preds = %.lr.ph80.preheader, %.loopexit
  %indvars.iv89 = phi i64 [ 0, %.lr.ph80.preheader ], [ %indvars.iv.next90, %.loopexit ]
  %64 = getelementptr inbounds ptr, ptr %60, i64 %indvars.iv89
  %65 = load ptr, ptr %64, align 8
  %66 = getelementptr inbounds i8, ptr %65, i64 96
  %67 = load ptr, ptr %66, align 8
  %68 = getelementptr inbounds i8, ptr %67, i64 24
  %69 = load i16, ptr %68, align 8
  %70 = and i16 %69, 8
  %.not39.i50 = icmp eq i16 %70, 0
  br i1 %.not39.i50, label %.lr.ph42.i52, label %.loopexit

.lr.ph42.i52:                                     ; preds = %.lr.ph80, %tailrecurse.i64
  %.tr3640.i53 = phi ptr [ %91, %tailrecurse.i64 ], [ %67, %.lr.ph80 ]
  %71 = getelementptr inbounds i8, ptr %.tr3640.i53, i64 32
  %72 = load ptr, ptr %71, align 8
  %.not33.i54 = icmp eq ptr %72, null
  br i1 %.not33.i54, label %._crit_edge.i62, label %73

73:                                               ; preds = %.lr.ph42.i52
  %74 = getelementptr inbounds i8, ptr %72, i64 -8
  %75 = load i32, ptr %74, align 4
  %.not44.i55 = icmp eq i32 %75, 0
  br i1 %.not44.i55, label %._crit_edge.i62, label %.lr.ph.preheader.i56

.lr.ph.preheader.i56:                             ; preds = %73
  %wide.trip.count.i57 = zext i32 %75 to i64
  br label %.lr.ph.i58

76:                                               ; preds = %.lr.ph.i58
  %indvars.iv.next.i60 = add nuw nsw i64 %indvars.iv.i59, 1
  %exitcond.not.i61 = icmp eq i64 %indvars.iv.next.i60, %wide.trip.count.i57
  br i1 %exitcond.not.i61, label %._crit_edge.i62, label %.lr.ph.i58, !llvm.loop !11

.lr.ph.i58:                                       ; preds = %76, %.lr.ph.preheader.i56
  %indvars.iv.i59 = phi i64 [ 0, %.lr.ph.preheader.i56 ], [ %indvars.iv.next.i60, %76 ]
  %77 = getelementptr inbounds ptr, ptr %72, i64 %indvars.iv.i59
  %78 = load ptr, ptr %77, align 8
  %79 = getelementptr inbounds i8, ptr %78, i64 24
  %80 = load i64, ptr %79, align 8
  %81 = lshr i64 %80, 34
  %82 = trunc nuw nsw i64 %81 to i32
  %83 = and i32 %82, 15
  %84 = icmp eq i32 %83, %2
  br i1 %84, label %operator_in_module.exit66, label %76

._crit_edge.i62:                                  ; preds = %76, %73, %.lr.ph42.i52
  %85 = getelementptr inbounds i8, ptr %.tr3640.i53, i64 88
  %86 = load ptr, ptr %85, align 8
  %.not34.i63 = icmp eq ptr %86, null
  br i1 %.not34.i63, label %.loopexit, label %87

87:                                               ; preds = %._crit_edge.i62
  %88 = getelementptr inbounds i8, ptr %86, i64 -8
  %89 = load i32, ptr %88, align 4
  %90 = icmp eq i32 %89, 0
  br i1 %90, label %.loopexit, label %tailrecurse.i64

tailrecurse.i64:                                  ; preds = %87
  %91 = load ptr, ptr %86, align 8
  %92 = getelementptr inbounds i8, ptr %91, i64 24
  %93 = load i16, ptr %92, align 8
  %94 = and i16 %93, 8
  %.not.i65 = icmp eq i16 %94, 0
  br i1 %.not.i65, label %.lr.ph42.i52, label %.loopexit

operator_in_module.exit66:                        ; preds = %.lr.ph.i58
  tail call void @unit_register_external_symbol(ptr noundef nonnull %28, ptr noundef nonnull %78) #10
  br label %.loopexit71

.loopexit:                                        ; preds = %87, %._crit_edge.i62, %tailrecurse.i64, %.lr.ph80
  %indvars.iv.next90 = add nuw nsw i64 %indvars.iv89, 1
  %exitcond93.not = icmp eq i64 %indvars.iv.next90, %wide.trip.count92
  br i1 %exitcond93.not, label %.loopexit71, label %.lr.ph80, !llvm.loop !12

.loopexit71:                                      ; preds = %.loopexit, %.loopexit72, %61, %operator_in_module.exit66, %operator_in_module.exit, %3, %24
  %.041 = phi ptr [ %17, %24 ], [ null, %3 ], [ %40, %operator_in_module.exit ], [ %78, %operator_in_module.exit66 ], [ null, %61 ], [ null, %.loopexit72 ], [ null, %.loopexit ]
  ret ptr %.041
}